Certificate:
    Data:
        Version: 3 (0x2)
        Serial Number:
            ab:a1:99:e1:0d:6a:fb:02:f8:29:80:6f:c1:00:63:0f
        Signature Algorithm: sha256WithRSAEncryption
        Issuer: CN=Easy-RSA CA
        Validity
            Not Before: May 22 07:49:56 2023 GMT
            Not After : Apr 28 07:49:56 2123 GMT
        Subject: CN=client.example.org
        Subject Public Key Info:
            Public Key Algorithm: rsaEncryption
                Public-Key: (2048 bit)
                Modulus:
                    00:b9:ae:d7:ca:85:58:43:cf:a9:0d:2c:94:ea:1c:
                    3a:17:f2:46:94:76:e3:76:ff:29:20:a5:37:e2:9a:
                    8a:59:d3:45:a8:2b:13:69:32:ff:16:55:05:8e:d1:
                    45:86:fe:58:65:02:ea:4b:c6:c4:20:44:ed:25:f3:
                    84:72:8a:5d:0e:cf:e3:e8:d2:3b:60:1a:d9:ad:f2:
                    49:31:1c:1f:c5:b1:fb:be:ab:54:8f:0e:ba:f0:8f:
                    a6:e6:5a:41:4f:f7:18:2a:f6:f1:77:67:2d:02:8d:
                    43:45:91:cb:d5:b8:0b:b6:07:93:35:a7:40:e8:3e:
                    5a:f1:ef:88:3d:ea:09:c7:62:bb:c9:49:2b:96:1c:
                    00:fe:e6:26:0b:25:a2:2d:69:e8:69:53:91:6d:f8:
                    f6:6f:06:41:b0:ef:84:33:6a:ba:2d:66:d5:f9:59:
                    ae:e4:77:25:65:35:c8:80:c7:ab:91:05:36:2a:83:
                    e6:73:bf:52:98:d9:98:d1:3f:03:57:fc:11:ff:a4:
                    83:09:5a:11:bc:65:16:68:26:30:d9:bc:86:95:77:
                    a5:10:1c:8a:ed:30:8c:b6:17:3f:22:72:5f:6d:24:
                    17:fa:f2:f3:0c:5d:97:b4:55:9f:f2:c3:56:dd:0e:
                    6a:1f:60:5f:a6:16:11:e1:50:32:84:73:05:f1:08:
                    5d:61
                Exponent: 65537 (0x10001)
        X509v3 extensions:
            X509v3 Basic Constraints: 
                CA:FALSE
            X509v3 Subject Key Identifier: 
                7C:71:FE:7F:CB:9C:0F:5E:EB:9B:58:82:C8:8D:D0:4F:44:6B:BC:DF
            X509v3 Authority Key Identifier: 
                keyid:35:67:DB:29:32:86:9C:8E:4F:BF:C1:A5:D5:14:C0:5A:1E:1D:67:EA
                DirName:/CN=Easy-RSA CA
                serial:28:00:C9:FC:35:2A:55:D0:1C:C2:BD:3C:1A:EE:64:65:E0:D6:47:4C
            X509v3 Extended Key Usage: 
                TLS Web Client Authentication
            X509v3 Key Usage: 
                Digital Signature
    Signature Algorithm: sha256WithRSAEncryption
    Signature Value:
        c5:97:39:c0:4b:cb:b9:11:56:69:1a:b1:30:03:f6:c7:34:c2:
        f9:3d:30:75:80:f2:7e:00:7d:69:ce:1e:2b:ba:59:40:d8:ab:
        ae:ac:54:f1:18:cd:a4:5a:36:20:e2:91:56:ed:6a:98:b7:9e:
        b0:87:9d:61:03:fa:16:b6:24:90:c9:74:d9:8a:7c:19:7e:f7:
        de:46:c4:91:f1:e0:b2:6c:24:6d:c8:17:b5:f3:b4:83:1d:f1:
        30:41:8b:70:e5:e3:27:47:94:70:ab:67:b9:e1:00:bc:14:00:
        82:51:26:df:f7:1c:57:b2:38:ff:44:80:12:c5:d8:2c:05:2a:
        1a:e3:53:c3:b0:df:f7:64:51:2b:10:53:85:ef:51:43:b2:30:
        3a:d4:30:36:03:92:d2:60:21:4b:30:0c:3c:7a:93:84:b3:09:
        3b:f4:e6:e4:ab:95:01:57:84:e0:7f:27:fe:e2:a3:3c:dc:2f:
        43:15:56:9c:ef:2b:ee:98:d6:9c:2a:78:e3:05:84:1e:97:5b:
        ec:54:6a:0a:42:b6:4b:61:b4:63:40:5a:25:50:68:8b:c0:39:
        bf:55:22:dd:ac:d6:70:dd:f2:47:be:85:fb:bc:cb:94:96:9a:
        fe:5f:93:57:19:b4:dc:ab:b7:b6:5a:5d:b6:76:b4:bc:df:da:
        be:33:e3:64
-----BEGIN CERTIFICATE-----
MIIDYzCCAkugAwIBAgIRAKuhmeENavsC+CmAb8EAYw8wDQYJKoZIhvcNAQELBQAw
FjEUMBIGA1UEAwwLRWFzeS1SU0EgQ0EwIBcNMjMwNTIyMDc0OTU2WhgPMjEyMzA0
MjgwNzQ5NTZaMB0xGzAZBgNVBAMMEmNsaWVudC5leGFtcGxlLm9yZzCCASIwDQYJ
KoZIhvcNAQEBBQADggEPADCCAQoCggEBALmu18qFWEPPqQ0slOocOhfyRpR243b/
KSClN+KailnTRagrE2ky/xZVBY7RRYb+WGUC6kvGxCBE7SXzhHKKXQ7P4+jSO2Aa
2a3ySTEcH8Wx+76rVI8OuvCPpuZaQU/3GCr28XdnLQKNQ0WRy9W4C7YHkzWnQOg+
WvHviD3qCcdiu8lJK5YcAP7mJgsloi1p6GlTkW349m8GQbDvhDNqui1m1flZruR3
JWU1yIDHq5EFNiqD5nO/UpjZmNE/A1f8Ef+kgwlaEbxlFmgmMNm8hpV3pRAciu0w
jLYXPyJyX20kF/ry8wxdl7RVn/LDVt0Oah9gX6YWEeFQMoRzBfEIXWECAwEAAaOB
ojCBnzAJBgNVHRMEAjAAMB0GA1UdDgQWBBR8cf5/y5wPXuubWILIjdBPRGu83zBR
BgNVHSMESjBIgBQ1Z9spMoacjk+/waXVFMBaHh1n6qEapBgwFjEUMBIGA1UEAwwL
RWFzeS1SU0EgQ0GCFCgAyfw1KlXQHMK9PBruZGXg1kdMMBMGA1UdJQQMMAoGCCsG
AQUFBwMCMAsGA1UdDwQEAwIHgDANBgkqhkiG9w0BAQsFAAOCAQEAxZc5wEvLuRFW
aRqxMAP2xzTC+T0wdYDyfgB9ac4eK7pZQNirrqxU8RjNpFo2IOKRVu1qmLeesIed
YQP6FrYkkMl02Yp8GX733kbEkfHgsmwkbcgXtfO0gx3xMEGLcOXjJ0eUcKtnueEA
vBQAglEm3/ccV7I4/0SAEsXYLAUqGuNTw7Df92RRKxBThe9RQ7IwOtQwNgOS0mAh
SzAMPHqThLMJO/Tm5KuVAVeE4H8n/uKjPNwvQxVWnO8r7pjWnCp44wWEHpdb7FRq
CkK2S2G0Y0BaJVBoi8A5v1Ui3azWcN3yR76F+7zLlJaa/l+TVxm03Ku3tlpdtna0
vN/avjPjZA==
-----END CERTIFICATE-----
