Certificate:
    Data:
        Version: 3 (0x2)
        Serial Number:
            70:77:ee:84:e4:33:9d:a3:44:d3:66:08:bd:a4:b0:fd
        Signature Algorithm: sha256WithRSAEncryption
        Issuer: CN=Easy-RSA CA
        Validity
            Not Before: May 22 07:50:06 2023 GMT
            Not After : Apr 28 07:50:06 2123 GMT
        Subject: CN=server.example.org
        Subject Public Key Info:
            Public Key Algorithm: rsaEncryption
                Public-Key: (2048 bit)
                Modulus:
                    00:da:a8:c1:3f:49:3c:7a:5c:81:ae:17:4a:1d:0b:
                    52:04:61:9d:e2:05:cb:01:7d:bd:a4:8d:4b:53:61:
                    34:99:84:73:b3:64:21:6a:aa:4d:ae:63:cb:5c:54:
                    79:03:b9:b5:16:5c:5a:04:96:e3:6d:a7:ff:04:3c:
                    8f:7b:f1:6a:11:27:d2:2f:fc:91:94:bb:09:d2:11:
                    1d:16:ae:af:dc:ae:92:d1:50:96:27:a2:53:e7:cc:
                    68:70:5d:43:49:be:a0:fc:3e:c5:c0:75:ba:aa:3a:
                    7d:d8:4b:cb:ed:69:21:ed:cf:e0:f2:9b:c7:96:0c:
                    d9:ec:37:e3:9a:67:a8:03:d6:40:e1:82:75:7c:8c:
                    5f:8a:3e:ed:5f:83:95:13:9b:66:de:96:c2:fa:71:
                    d8:ec:1e:59:4e:ef:6e:c4:2f:51:0a:1b:1f:7b:7e:
                    57:a8:4c:bc:9a:29:94:2a:6a:fb:16:64:27:03:f1:
                    a8:e7:3e:85:53:73:f8:ac:49:55:57:de:01:d7:e7:
                    54:26:58:5c:e4:0e:7a:18:fc:ac:3f:6a:db:1e:46:
                    9d:c4:50:50:55:e6:28:0e:d9:c0:b0:31:d0:f0:62:
                    b4:71:1d:69:0c:49:b2:a3:7c:6a:8f:64:17:25:b6:
                    d0:91:09:d1:1a:52:72:b3:6c:36:03:dc:21:0e:a6:
                    39:4b
                Exponent: 65537 (0x10001)
        X509v3 extensions:
            X509v3 Basic Constraints: 
                CA:FALSE
            X509v3 Subject Key Identifier: 
                8F:6A:EE:D6:6F:12:6B:48:1B:64:CE:54:D2:DA:D8:5A:40:3B:62:C5
            X509v3 Authority Key Identifier: 
                keyid:35:67:DB:29:32:86:9C:8E:4F:BF:C1:A5:D5:14:C0:5A:1E:1D:67:EA
                DirName:/CN=Easy-RSA CA
                serial:28:00:C9:FC:35:2A:55:D0:1C:C2:BD:3C:1A:EE:64:65:E0:D6:47:4C
            X509v3 Extended Key Usage: 
                TLS Web Server Authentication
            X509v3 Key Usage: 
                Digital Signature, Key Encipherment
            X509v3 Subject Alternative Name: 
                DNS:server.example.org
    Signature Algorithm: sha256WithRSAEncryption
    Signature Value:
        1e:c9:35:e4:5d:30:fb:a1:ff:46:ae:f4:e2:5a:0f:a4:d6:84:
        49:31:38:22:15:ce:8d:42:35:95:57:e3:b2:2f:c2:d4:aa:9b:
        3d:c8:e5:1f:64:71:29:ea:4a:e2:ba:d3:45:b1:28:42:2f:cd:
        7d:98:55:e3:5b:be:1c:57:35:d9:f7:02:04:c3:78:17:c8:35:
        f9:f7:dd:81:c6:14:f5:31:6b:cb:43:96:6d:6d:03:20:07:3f:
        d1:8b:b6:23:a0:91:ef:99:5a:95:52:c9:c6:8f:d0:19:8c:84:
        94:2f:f3:6a:ec:65:f0:5d:74:3e:9d:18:ad:3b:f8:0c:43:76:
        0a:05:37:ee:ba:75:6e:cb:46:8b:2c:9c:4a:2c:e6:27:57:72:
        c2:09:ba:2d:e7:6b:15:bf:9d:65:cd:ab:cc:54:64:f4:2f:d2:
        45:ef:e5:12:11:06:ae:b2:c1:b2:87:40:41:77:e0:15:72:e1:
        61:26:a4:13:91:11:5c:61:3f:1a:f2:01:c1:42:6e:b5:22:fd:
        59:b5:9c:47:91:6f:ef:1b:4a:52:94:23:39:c4:35:d8:09:0a:
        df:b1:f2:c9:95:da:4e:4e:b8:9c:9e:29:79:c8:df:a0:29:df:
        ba:c8:1e:0c:13:97:23:7d:51:39:05:b3:51:dd:51:0f:b0:e1:
        68:e9:f5:ba
-----BEGIN CERTIFICATE-----
MIIDgTCCAmmgAwIBAgIQcHfuhOQznaNE02YIvaSw/TANBgkqhkiG9w0BAQsFADAW
MRQwEgYDVQQDDAtFYXN5LVJTQSBDQTAgFw0yMzA1MjIwNzUwMDZaGA8yMTIzMDQy
ODA3NTAwNlowHTEbMBkGA1UEAwwSc2VydmVyLmV4YW1wbGUub3JnMIIBIjANBgkq
hkiG9w0BAQEFAAOCAQ8AMIIBCgKCAQEA2qjBP0k8elyBrhdKHQtSBGGd4gXLAX29
pI1LU2E0mYRzs2QhaqpNrmPLXFR5A7m1FlxaBJbjbaf/BDyPe/FqESfSL/yRlLsJ
0hEdFq6v3K6S0VCWJ6JT58xocF1DSb6g/D7FwHW6qjp92EvL7Wkh7c/g8pvHlgzZ
7DfjmmeoA9ZA4YJ1fIxfij7tX4OVE5tm3pbC+nHY7B5ZTu9uxC9RChsfe35XqEy8
mimUKmr7FmQnA/Go5z6FU3P4rElVV94B1+dUJlhc5A56GPysP2rbHkadxFBQVeYo
DtnAsDHQ8GK0cR1pDEmyo3xqj2QXJbbQkQnRGlJys2w2A9whDqY5SwIDAQABo4HB
MIG+MAkGA1UdEwQCMAAwHQYDVR0OBBYEFI9q7tZvEmtIG2TOVNLa2FpAO2LFMFEG
A1UdIwRKMEiAFDVn2ykyhpyOT7/BpdUUwFoeHWfqoRqkGDAWMRQwEgYDVQQDDAtF
YXN5LVJTQSBDQYIUKADJ/DUqVdAcwr08Gu5kZeDWR0wwEwYDVR0lBAwwCgYIKwYB
BQUHAwEwCwYDVR0PBAQDAgWgMB0GA1UdEQQWMBSCEnNlcnZlci5leGFtcGxlLm9y
ZzANBgkqhkiG9w0BAQsFAAOCAQEAHsk15F0w+6H/Rq704loPpNaESTE4IhXOjUI1
lVfjsi/C1KqbPcjlH2RxKepK4rrTRbEoQi/NfZhV41u+HFc12fcCBMN4F8g1+ffd
gcYU9TFry0OWbW0DIAc/0Yu2I6CR75lalVLJxo/QGYyElC/zauxl8F10Pp0YrTv4
DEN2CgU37rp1bstGiyycSizmJ1dywgm6LedrFb+dZc2rzFRk9C/SRe/lEhEGrrLB
sodAQXfgFXLhYSakE5ERXGE/GvIBwUJutSL9WbWcR5Fv7xtKUpQjOcQ12AkK37Hy
yZXaTk64nJ4pecjfoCnfusgeDBOXI31ROQWzUd1RD7DhaOn1ug==
-----END CERTIFICATE-----
